; Function Attrs: mustprogress uwtable
define void @_ZN5arrow8internal19DictionaryMemoTable11GetOrInsertEPKNS_15LargeBinaryTypeESt17basic_string_viewIcSt11char_traitsIcEEPi(ptr dead_on_unwind noalias writable sret(%"class.arrow::Status") align 8 %0, ptr noundef nonnull readonly align 8 captures(none) dereferenceable(8) %1, ptr noundef readnone captures(none) %2, i64 %3, ptr %4, ptr noundef %5) local_unnamed_addr #1 align 2 {
  %7 = alloca %class.anon.238, align 1
  %8 = alloca %class.anon.240, align 1
  %9 = load ptr, ptr %1, align 8, !tbaa !41
  %10 = getelementptr inbounds nuw i8, ptr %9, i64 24
  %11 = load ptr, ptr %10, align 8, !tbaa !84, !noalias !658
  call void @llvm.lifetime.start.p0(i64 1, ptr nonnull %7) #26, !noalias !661
  call void @llvm.lifetime.start.p0(i64 1, ptr nonnull %8) #26, !noalias !661
  call void @_ZN5arrow8internal15BinaryMemoTableINS_18LargeBinaryBuilderEE11GetOrInsertIZNS3_11GetOrInsertEPKvlPiEUliE_ZNS3_11GetOrInsertES6_lS7_EUliE0_EENS_6StatusES6_lOT_OT0_S7_(ptr dead_on_unwind writable sret(%"class.arrow::Status") align 8 %0, ptr noundef nonnull align 8 dereferenceable(356) %11, ptr noundef %4, i64 noundef %3, ptr noundef nonnull align 1 dereferenceable(1) %7, ptr noundef nonnull align 1 dereferenceable(1) %8, ptr noundef %5)
  call void @llvm.lifetime.end.p0(i64 1, ptr nonnull %8) #26, !noalias !661
  call void @llvm.lifetime.end.p0(i64 1, ptr nonnull %7) #26, !noalias !661
  ret void
}